; Function Attrs: nounwind uwtable
define noundef ptr @Extra_bddComputeCube(ptr noundef %0, ptr noundef readonly captures(none) %1, i32 noundef %2) local_unnamed_addr #0 {
  %4 = getelementptr inbounds nuw i8, ptr %0, i64 40
  %5 = load ptr, ptr %4, align 8, !tbaa !34
  tail call void @Cudd_Ref(ptr noundef %5) #19
  %6 = icmp sgt i32 %2, 0
  br i1 %6, label %.lr.ph.preheader, label %._crit_edge

.lr.ph.preheader:                                 ; preds = %3
  %wide.trip.count = zext nneg i32 %2 to i64
  br label %.lr.ph

.lr.ph:                                           ; preds = %.lr.ph.preheader, %.lr.ph
  %indvars.iv = phi i64 [ 0, %.lr.ph.preheader ], [ %indvars.iv.next, %.lr.ph ]
  %.01314 = phi ptr [ %5, %.lr.ph.preheader ], [ %9, %.lr.ph ]
  %7 = getelementptr inbounds nuw ptr, ptr %1, i64 %indvars.iv
  %8 = load ptr, ptr %7, align 8, !tbaa !25
  %9 = tail call ptr @Cudd_bddAnd(ptr noundef %0, ptr noundef %.01314, ptr noundef %8) #19
  tail call void @Cudd_Ref(ptr noundef %9) #19
  tail call void @Cudd_RecursiveDeref(ptr noundef %0, ptr noundef %.01314) #19
  %indvars.iv.next = add nuw nsw i64 %indvars.iv, 1
  %exitcond.not = icmp eq i64 %indvars.iv.next, %wide.trip.count
  br i1 %exitcond.not, label %._crit_edge, label %.lr.ph, !llvm.loop !67

._crit_edge:                                      ; preds = %.lr.ph, %3
  %.013.lcssa = phi ptr [ %5, %3 ], [ %9, %.lr.ph ]
  tail call void @Cudd_Deref(ptr noundef %.013.lcssa) #19
  ret ptr %.013.lcssa
}